target datalayout = "e-m:e-p270:32:32-p271:32:32-p272:64:64-i64:64-i128:128-f80:128-n8:16:32:64-S128"
target triple = "x86_64-pc-linux-gnu"

%"class.llvm::SMLoc" = type { ptr }
%"class.llvm::StringRef" = type { ptr, i64 }

; Function Attrs: mustprogress nounwind uwtable
define internal noundef zeroext i1 @_ZN4llvm20MCAsmParserExtension15HandleDirectiveIN12_GLOBAL__N_115DarwinAsmParserETnMT_FbNS_9StringRefENS_5SMLocEEXadL_ZNS3_30parseSectionDirectiveObjCClassES5_S6_EEEEbPS0_S5_S6_(ptr noundef %0, ptr %1, i64 %2, ptr %3) #0 align 2 {
  %5 = alloca %"class.llvm::StringRef", align 8
  %6 = alloca %"class.llvm::SMLoc", align 8
  %7 = alloca ptr, align 8
  %8 = alloca ptr, align 8
  %9 = alloca %"class.llvm::StringRef", align 8
  %10 = alloca %"class.llvm::SMLoc", align 8
  %11 = getelementptr inbounds nuw { ptr, i64 }, ptr %5, i32 0, i32 0
  store ptr %1, ptr %11, align 8
  %12 = getelementptr inbounds nuw { ptr, i64 }, ptr %5, i32 0, i32 1
  store i64 %2, ptr %12, align 8
  %13 = getelementptr inbounds nuw %"class.llvm::SMLoc", ptr %6, i32 0, i32 0
  store ptr %3, ptr %13, align 8
  store ptr %0, ptr %7, align 8
  %14 = load ptr, ptr %7, align 8
  store ptr %14, ptr %8, align 8
  %15 = load ptr, ptr %8, align 8
  %16 = getelementptr inbounds i8, ptr %15, i64 0
  br i1 false, label %17, label %21

17:                                               ; preds = %4
  %18 = load ptr, ptr %16, align 8
  %19 = getelementptr i8, ptr %18, i64 sub (i64 ptrtoint (ptr @_ZN12_GLOBAL__N_115DarwinAsmParser30parseSectionDirectiveObjCClassEN4llvm9StringRefENS1_5SMLocE to i64), i64 1), !nosanitize !4
  %20 = load ptr, ptr %19, align 8, !nosanitize !4
  br label %22

21:                                               ; preds = %4
  br label %22

22:                                               ; preds = %21, %17
  %23 = phi ptr [ %20, %17 ], [ @_ZN12_GLOBAL__N_115DarwinAsmParser30parseSectionDirectiveObjCClassEN4llvm9StringRefENS1_5SMLocE, %21 ]
  call void @llvm.memcpy.p0.p0.i64(ptr align 8 %9, ptr align 8 %5, i64 16, i1 false)
  call void @llvm.memcpy.p0.p0.i64(ptr align 8 %10, ptr align 8 %6, i64 8, i1 false)
  %24 = getelementptr inbounds nuw { ptr, i64 }, ptr %9, i32 0, i32 0
  %25 = load ptr, ptr %24, align 8
  %26 = getelementptr inbounds nuw { ptr, i64 }, ptr %9, i32 0, i32 1
  %27 = load i64, ptr %26, align 8
  %28 = getelementptr inbounds nuw %"class.llvm::SMLoc", ptr %10, i32 0, i32 0
  %29 = load ptr, ptr %28, align 8
  %30 = call noundef zeroext i1 %23(ptr noundef nonnull align 8 dereferenceable(32) %16, ptr %25, i64 %27, ptr %29)
  ret i1 %30
}